; Function Attrs: nounwind uwtable
define noundef i32 @engine_free_util(ptr noundef %0, i32 noundef %1) local_unnamed_addr #0 {
  %3 = icmp eq ptr %0, null
  br i1 %3, label %16, label %4

4:                                                ; preds = %2
  %5 = getelementptr inbounds nuw i8, ptr %0, i64 156
  %6 = atomicrmw sub ptr %5, i32 1 release, align 4
  %7 = icmp eq i32 %6, 1
  br i1 %7, label %CRYPTO_DOWN_REF.exit.thread, label %CRYPTO_DOWN_REF.exit

CRYPTO_DOWN_REF.exit.thread:                      ; preds = %4
  fence acquire
  br label %9

CRYPTO_DOWN_REF.exit:                             ; preds = %4
  %8 = icmp sgt i32 %6, 1
  br i1 %8, label %16, label %9

9:                                                ; preds = %CRYPTO_DOWN_REF.exit.thread, %CRYPTO_DOWN_REF.exit
  tail call void @engine_pkey_meths_free(ptr noundef nonnull %0) #6
  tail call void @engine_pkey_asn1_meths_free(ptr noundef nonnull %0) #6
  %10 = getelementptr inbounds nuw i8, ptr %0, i64 88
  %11 = load ptr, ptr %10, align 8, !tbaa !26
  %.not = icmp eq ptr %11, null
  br i1 %.not, label %14, label %12

12:                                               ; preds = %9
  %13 = tail call i32 %11(ptr noundef nonnull %0) #6
  br label %14

14:                                               ; preds = %12, %9
  tail call void @engine_remove_dynamic_id(ptr noundef nonnull %0, i32 noundef %1) #6
  %15 = getelementptr inbounds nuw i8, ptr %0, i64 168
  tail call void @CRYPTO_free_ex_data(i32 noundef 10, ptr noundef nonnull %0, ptr noundef nonnull %15) #6
  tail call void @CRYPTO_free(ptr noundef nonnull %0, ptr noundef nonnull @.str, i32 noundef 100) #6
  br label %16

16:                                               ; preds = %CRYPTO_DOWN_REF.exit, %2, %14
  ret i32 1
}